; Function Attrs: nounwind uwtable
define void @validateControl(ptr noundef readonly byval(%struct.Qureg) align 8 captures(none) %0, i32 noundef %1, ptr noundef %2) local_unnamed_addr #3 {
  %4 = icmp slt i32 %1, 0
  %5 = getelementptr inbounds nuw i8, ptr %0, i64 4
  %6 = load i32, ptr %5, align 4
  %7 = icmp sge i32 %1, %6
  %.not3 = select i1 %4, i1 true, i1 %7
  br i1 %.not3, label %8, label %QuESTAssert.exit

8:                                                ; preds = %3
  tail call void @invalidQuESTInputError(ptr noundef nonnull @.str.7, ptr noundef %2)
  br label %QuESTAssert.exit

QuESTAssert.exit:                                 ; preds = %3, %8
  ret void
}